target datalayout = "e-m:e-p270:32:32-p271:32:32-p272:64:64-i64:64-i128:128-f80:128-n8:16:32:64-S128"
target triple = "x86_64-pc-linux-gnu"

%struct._e_guid_t = type { i32, i16, i16, [8 x i8] }
%struct._packet_info = type { ptr, ptr, i32, i32, %struct.nstime_t, %struct.nstime_t, %struct.nstime_t, i32, ptr, ptr, ptr, ptr, %struct._address, %struct._address, %struct._address, %struct._address, %struct._address, %struct._address, i32, ptr, i32, %struct.anon, i32, i32, i32, i32, ptr, i32, ptr, ptr, i16, i16, i32, i32, i16, i32, i32, ptr, ptr, ptr, i8, i8, i16, i16, i16, i32, i16, i16, ptr, ptr, ptr, ptr, ptr, i32 }
%struct.nstime_t = type { i64, i32 }
%struct._address = type { i32, i32, ptr, ptr }
%struct.anon = type { i8, [3 x i8] }
%struct._e_ctx_hnd = type { i32, %struct._e_guid_t }

@hf_hnd = internal global i32 0, align 4
@.str.1228 = private unnamed_addr constant [5 x i8] c", %s\00", align 1

; Function Attrs: nounwind uwtable
define internal i32 @SpoolssEndDocPrinter_q(ptr noundef %0, i32 noundef %1, ptr noundef %2, ptr noundef %3, ptr noundef %4, ptr noundef %5) #0 {
  %7 = alloca ptr, align 8
  %8 = alloca i32, align 4
  %9 = alloca ptr, align 8
  %10 = alloca ptr, align 8
  %11 = alloca ptr, align 8
  %12 = alloca ptr, align 8
  %13 = alloca %struct._e_ctx_hnd, align 4
  %14 = alloca ptr, align 8
  store ptr %0, ptr %7, align 8
  store i32 %1, ptr %8, align 4
  store ptr %2, ptr %9, align 8
  store ptr %3, ptr %10, align 8
  store ptr %4, ptr %11, align 8
  store ptr %5, ptr %12, align 8
  %15 = load ptr, ptr %7, align 8
  %16 = load i32, ptr %8, align 4
  %17 = load ptr, ptr %9, align 8
  %18 = load ptr, ptr %10, align 8
  %19 = load ptr, ptr %11, align 8
  %20 = load ptr, ptr %12, align 8
  %21 = load i32, ptr @hf_hnd, align 4
  %22 = call i32 @dissect_nt_policy_hnd(ptr noundef %15, i32 noundef %16, ptr noundef %17, ptr noundef %18, ptr noundef %19, ptr noundef %20, i32 noundef %21, ptr noundef %13, ptr noundef null, i32 noundef 0, i32 noundef 0)
  store i32 %22, ptr %8, align 4
  %23 = load ptr, ptr %9, align 8
  %24 = getelementptr inbounds %struct._packet_info, ptr %23, i32 0, i32 3
  %25 = load i32, ptr %24, align 4
  %26 = call i32 @dcerpc_fetch_polhnd_data(ptr noundef %13, ptr noundef %14, ptr noundef null, ptr noundef null, ptr noundef null, i32 noundef %25)
  %27 = load ptr, ptr %14, align 8
  %28 = icmp ne ptr %27, null
  br i1 %28, label %29, label %34

29:                                               ; preds = %6
  %30 = load ptr, ptr %9, align 8
  %31 = getelementptr inbounds %struct._packet_info, ptr %30, i32 0, i32 1
  %32 = load ptr, ptr %31, align 8
  %33 = load ptr, ptr %14, align 8
  call void (ptr, i32, ptr, ...) @col_append_fstr(ptr noundef %32, i32 noundef 25, ptr noundef @.str.1228, ptr noundef %33)
  br label %34

34:                                               ; preds = %29, %6
  %35 = load i32, ptr %8, align 4
  ret i32 %35
}